target datalayout = "e-m:e-p270:32:32-p271:32:32-p272:64:64-i64:64-i128:128-f80:128-n8:16:32:64-S128"
target triple = "x86_64-pc-linux-gnu"

%struct._zval_struct = type { %union._zend_value, %union.anon, %union.anon.2 }
%union._zend_value = type { i64 }
%union.anon = type { i32 }
%union.anon.2 = type { i32 }
%struct._zend_refcounted_h = type { i32, %union.anon.3 }
%union.anon.3 = type { i32 }
%struct._Bucket = type { %struct._zval_struct, i64, ptr }
%struct._zend_string = type { %struct._zend_refcounted_h, i64, i64, [1 x i8] }

; Function Attrs: alwaysinline nounwind uwtable
define internal i32 @zval_gc_flags(i32 noundef %0) #5 {
  %2 = alloca i32, align 4
  store i32 %0, ptr %2, align 4, !tbaa !4
  %3 = load i32, ptr %2, align 4, !tbaa !4
  %4 = lshr i32 %3, 0
  %5 = and i32 %4, 1008
  ret i32 %5
}

; Function Attrs: alwaysinline nounwind uwtable
define internal i32 @php_array_key_compare_unstable_i(ptr noundef %0, ptr noundef %1) #5 {
  %3 = alloca i32, align 4
  %4 = alloca ptr, align 8
  %5 = alloca ptr, align 8
  %6 = alloca %struct._zval_struct, align 8
  %7 = alloca %struct._zval_struct, align 8
  %8 = alloca i32, align 4
  %9 = alloca ptr, align 8
  %10 = alloca ptr, align 8
  %11 = alloca ptr, align 8
  %12 = alloca ptr, align 8
  %13 = alloca ptr, align 8
  %14 = alloca ptr, align 8
  store ptr %0, ptr %4, align 8, !tbaa !85
  store ptr %1, ptr %5, align 8, !tbaa !85
  call void @llvm.lifetime.start.p0(i64 16, ptr %6) #17
  call void @llvm.lifetime.start.p0(i64 16, ptr %7) #17
  %15 = load ptr, ptr %4, align 8, !tbaa !85
  %16 = getelementptr inbounds nuw %struct._Bucket, ptr %15, i32 0, i32 2
  %17 = load ptr, ptr %16, align 8, !tbaa !118
  %18 = icmp eq ptr %17, null
  br i1 %18, label %19, label %33

19:                                               ; preds = %2
  %20 = load ptr, ptr %5, align 8, !tbaa !85
  %21 = getelementptr inbounds nuw %struct._Bucket, ptr %20, i32 0, i32 2
  %22 = load ptr, ptr %21, align 8, !tbaa !118
  %23 = icmp eq ptr %22, null
  br i1 %23, label %24, label %33

24:                                               ; preds = %19
  %25 = load ptr, ptr %4, align 8, !tbaa !85
  %26 = getelementptr inbounds nuw %struct._Bucket, ptr %25, i32 0, i32 1
  %27 = load i64, ptr %26, align 8, !tbaa !116
  %28 = load ptr, ptr %5, align 8, !tbaa !85
  %29 = getelementptr inbounds nuw %struct._Bucket, ptr %28, i32 0, i32 1
  %30 = load i64, ptr %29, align 8, !tbaa !116
  %31 = icmp sgt i64 %27, %30
  %32 = select i1 %31, i32 1, i32 -1
  store i32 %32, ptr %3, align 4
  store i32 1, ptr %8, align 4
  br label %126

33:                                               ; preds = %19, %2
  %34 = load ptr, ptr %4, align 8, !tbaa !85
  %35 = getelementptr inbounds nuw %struct._Bucket, ptr %34, i32 0, i32 2
  %36 = load ptr, ptr %35, align 8, !tbaa !118
  %37 = icmp ne ptr %36, null
  br i1 %37, label %38, label %51

38:                                               ; preds = %33
  %39 = load ptr, ptr %5, align 8, !tbaa !85
  %40 = getelementptr inbounds nuw %struct._Bucket, ptr %39, i32 0, i32 2
  %41 = load ptr, ptr %40, align 8, !tbaa !118
  %42 = icmp ne ptr %41, null
  br i1 %42, label %43, label %51

43:                                               ; preds = %38
  %44 = load ptr, ptr %4, align 8, !tbaa !85
  %45 = getelementptr inbounds nuw %struct._Bucket, ptr %44, i32 0, i32 2
  %46 = load ptr, ptr %45, align 8, !tbaa !118
  %47 = load ptr, ptr %5, align 8, !tbaa !85
  %48 = getelementptr inbounds nuw %struct._Bucket, ptr %47, i32 0, i32 2
  %49 = load ptr, ptr %48, align 8, !tbaa !118
  %50 = call i32 @zendi_smart_strcmp(ptr noundef %46, ptr noundef %49)
  store i32 %50, ptr %3, align 4
  store i32 1, ptr %8, align 4
  br label %126

51:                                               ; preds = %38, %33
  br label %52

52:                                               ; preds = %51
  %53 = load ptr, ptr %4, align 8, !tbaa !85
  %54 = getelementptr inbounds nuw %struct._Bucket, ptr %53, i32 0, i32 2
  %55 = load ptr, ptr %54, align 8, !tbaa !118
  %56 = icmp ne ptr %55, null
  br i1 %56, label %57, label %77

57:                                               ; preds = %52
  br label %58

58:                                               ; preds = %57
  call void @llvm.lifetime.start.p0(i64 8, ptr %9) #17
  store ptr %6, ptr %9, align 8, !tbaa !13
  call void @llvm.lifetime.start.p0(i64 8, ptr %10) #17
  %59 = load ptr, ptr %4, align 8, !tbaa !85
  %60 = getelementptr inbounds nuw %struct._Bucket, ptr %59, i32 0, i32 2
  %61 = load ptr, ptr %60, align 8, !tbaa !118
  store ptr %61, ptr %10, align 8, !tbaa !76
  %62 = load ptr, ptr %10, align 8, !tbaa !76
  %63 = load ptr, ptr %9, align 8, !tbaa !13
  %64 = getelementptr inbounds nuw %struct._zval_struct, ptr %63, i32 0, i32 0
  store ptr %62, ptr %64, align 8, !tbaa !17
  %65 = load ptr, ptr %10, align 8, !tbaa !76
  %66 = getelementptr inbounds nuw %struct._zend_string, ptr %65, i32 0, i32 0
  %67 = getelementptr inbounds nuw %struct._zend_refcounted_h, ptr %66, i32 0, i32 1
  %68 = load i32, ptr %67, align 4, !tbaa !17
  %69 = call i32 @zval_gc_flags(i32 noundef %68)
  %70 = and i32 %69, 64
  %71 = icmp ne i32 %70, 0
  %72 = select i1 %71, i32 6, i32 262
  %73 = load ptr, ptr %9, align 8, !tbaa !13
  %74 = getelementptr inbounds nuw %struct._zval_struct, ptr %73, i32 0, i32 1
  store i32 %72, ptr %74, align 8, !tbaa !17
  call void @llvm.lifetime.end.p0(i64 8, ptr %10) #17
  call void @llvm.lifetime.end.p0(i64 8, ptr %9) #17
  br label %75

75:                                               ; preds = %58
  br label %76

76:                                               ; preds = %75
  br label %88

77:                                               ; preds = %52
  br label %78

78:                                               ; preds = %77
  call void @llvm.lifetime.start.p0(i64 8, ptr %11) #17
  store ptr %6, ptr %11, align 8, !tbaa !13
  %79 = load ptr, ptr %4, align 8, !tbaa !85
  %80 = getelementptr inbounds nuw %struct._Bucket, ptr %79, i32 0, i32 1
  %81 = load i64, ptr %80, align 8, !tbaa !116
  %82 = load ptr, ptr %11, align 8, !tbaa !13
  %83 = getelementptr inbounds nuw %struct._zval_struct, ptr %82, i32 0, i32 0
  store i64 %81, ptr %83, align 8, !tbaa !17
  %84 = load ptr, ptr %11, align 8, !tbaa !13
  %85 = getelementptr inbounds nuw %struct._zval_struct, ptr %84, i32 0, i32 1
  store i32 4, ptr %85, align 8, !tbaa !17
  call void @llvm.lifetime.end.p0(i64 8, ptr %11) #17
  br label %86

86:                                               ; preds = %78
  br label %87

87:                                               ; preds = %86
  br label %88

88:                                               ; preds = %87, %76
  %89 = load ptr, ptr %5, align 8, !tbaa !85
  %90 = getelementptr inbounds nuw %struct._Bucket, ptr %89, i32 0, i32 2
  %91 = load ptr, ptr %90, align 8, !tbaa !118
  %92 = icmp ne ptr %91, null
  br i1 %92, label %93, label %113

93:                                               ; preds = %88
  br label %94

94:                                               ; preds = %93
  call void @llvm.lifetime.start.p0(i64 8, ptr %12) #17
  store ptr %7, ptr %12, align 8, !tbaa !13
  call void @llvm.lifetime.start.p0(i64 8, ptr %13) #17
  %95 = load ptr, ptr %5, align 8, !tbaa !85
  %96 = getelementptr inbounds nuw %struct._Bucket, ptr %95, i32 0, i32 2
  %97 = load ptr, ptr %96, align 8, !tbaa !118
  store ptr %97, ptr %13, align 8, !tbaa !76
  %98 = load ptr, ptr %13, align 8, !tbaa !76
  %99 = load ptr, ptr %12, align 8, !tbaa !13
  %100 = getelementptr inbounds nuw %struct._zval_struct, ptr %99, i32 0, i32 0
  store ptr %98, ptr %100, align 8, !tbaa !17
  %101 = load ptr, ptr %13, align 8, !tbaa !76
  %102 = getelementptr inbounds nuw %struct._zend_string, ptr %101, i32 0, i32 0
  %103 = getelementptr inbounds nuw %struct._zend_refcounted_h, ptr %102, i32 0, i32 1
  %104 = load i32, ptr %103, align 4, !tbaa !17
  %105 = call i32 @zval_gc_flags(i32 noundef %104)
  %106 = and i32 %105, 64
  %107 = icmp ne i32 %106, 0
  %108 = select i1 %107, i32 6, i32 262
  %109 = load ptr, ptr %12, align 8, !tbaa !13
  %110 = getelementptr inbounds nuw %struct._zval_struct, ptr %109, i32 0, i32 1
  store i32 %108, ptr %110, align 8, !tbaa !17
  call void @llvm.lifetime.end.p0(i64 8, ptr %13) #17
  call void @llvm.lifetime.end.p0(i64 8, ptr %12) #17
  br label %111

111:                                              ; preds = %94
  br label %112

112:                                              ; preds = %111
  br label %124

113:                                              ; preds = %88
  br label %114

114:                                              ; preds = %113
  call void @llvm.lifetime.start.p0(i64 8, ptr %14) #17
  store ptr %7, ptr %14, align 8, !tbaa !13
  %115 = load ptr, ptr %5, align 8, !tbaa !85
  %116 = getelementptr inbounds nuw %struct._Bucket, ptr %115, i32 0, i32 1
  %117 = load i64, ptr %116, align 8, !tbaa !116
  %118 = load ptr, ptr %14, align 8, !tbaa !13
  %119 = getelementptr inbounds nuw %struct._zval_struct, ptr %118, i32 0, i32 0
  store i64 %117, ptr %119, align 8, !tbaa !17
  %120 = load ptr, ptr %14, align 8, !tbaa !13
  %121 = getelementptr inbounds nuw %struct._zval_struct, ptr %120, i32 0, i32 1
  store i32 4, ptr %121, align 8, !tbaa !17
  call void @llvm.lifetime.end.p0(i64 8, ptr %14) #17
  br label %122

122:                                              ; preds = %114
  br label %123

123:                                              ; preds = %122
  br label %124

124:                                              ; preds = %123, %112
  %125 = call i32 @zend_compare(ptr noundef %6, ptr noundef %7)
  store i32 %125, ptr %3, align 4
  store i32 1, ptr %8, align 4
  br label %126

126:                                              ; preds = %124, %43, %24
  call void @llvm.lifetime.end.p0(i64 16, ptr %7) #17
  call void @llvm.lifetime.end.p0(i64 16, ptr %6) #17
  %127 = load i32, ptr %3, align 4
  ret i32 %127
}

; Function Attrs: noinline nounwind uwtable
define internal i32 @php_array_key_compare(ptr noundef %0, ptr noundef %1) #14 {
  %3 = alloca i32, align 4
  %4 = alloca ptr, align 8
  %5 = alloca ptr, align 8
  %6 = alloca i32, align 4
  %7 = alloca i32, align 4
  store ptr %0, ptr %4, align 8, !tbaa !85
  store ptr %1, ptr %5, align 8, !tbaa !85
  br label %8

8:                                                ; preds = %2
  call void @llvm.lifetime.start.p0(i64 4, ptr %6) #17
  %9 = load ptr, ptr %4, align 8, !tbaa !85
  %10 = load ptr, ptr %5, align 8, !tbaa !85
  %11 = call i32 @php_array_key_compare_unstable_i(ptr noundef %9, ptr noundef %10)
  store i32 %11, ptr %6, align 4, !tbaa !4
  %12 = load i32, ptr %6, align 4, !tbaa !4
  %13 = icmp ne i32 %12, 0
  %14 = xor i1 %13, true
  %15 = xor i1 %14, true
  %16 = zext i1 %15 to i32
  %17 = sext i32 %16 to i64
  %18 = call i64 @llvm.expect.i64(i64 %17, i64 1)
  %19 = icmp ne i64 %18, 0
  br i1 %19, label %20, label %22

20:                                               ; preds = %8
  %21 = load i32, ptr %6, align 4, !tbaa !4
  store i32 %21, ptr %3, align 4
  store i32 1, ptr %7, align 4
  br label %26

22:                                               ; preds = %8
  %23 = load ptr, ptr %4, align 8, !tbaa !85
  %24 = load ptr, ptr %5, align 8, !tbaa !85
  %25 = call i32 @stable_sort_fallback(ptr noundef %23, ptr noundef %24)
  store i32 %25, ptr %3, align 4
  store i32 1, ptr %7, align 4
  br label %26

26:                                               ; preds = %22, %20
  call void @llvm.lifetime.end.p0(i64 4, ptr %6) #17
  br label %27

27:                                               ; preds = %26
  %28 = load i32, ptr %3, align 4
  ret i32 %28
}