; Function Attrs: noinline nounwind uwtable
define internal i32 @php_array_key_compare(ptr noundef readonly captures(none) %0, ptr noundef readonly captures(none) %1) #16 {
  %3 = alloca %struct._zval_struct, align 8
  %4 = alloca %struct._zval_struct, align 8
  call void @llvm.lifetime.start.p0(i64 16, ptr nonnull %3) #21
  call void @llvm.lifetime.start.p0(i64 16, ptr nonnull %4) #21
  %5 = getelementptr inbounds nuw i8, ptr %0, i64 24
  %6 = load ptr, ptr %5, align 8, !tbaa !114
  %7 = icmp eq ptr %6, null
  %8 = getelementptr inbounds nuw i8, ptr %1, i64 24
  %9 = load ptr, ptr %8, align 8, !tbaa !114
  %10 = icmp eq ptr %9, null
  br i1 %7, label %11, label %18

11:                                               ; preds = %2
  %12 = getelementptr inbounds nuw i8, ptr %0, i64 16
  %13 = load i64, ptr %12, align 8, !tbaa !116
  br i1 %10, label %php_array_key_compare_unstable_i.exit.thread, label %21

php_array_key_compare_unstable_i.exit.thread:     ; preds = %11
  %14 = getelementptr inbounds nuw i8, ptr %1, i64 16
  %15 = load i64, ptr %14, align 8, !tbaa !116
  %16 = icmp sgt i64 %13, %15
  %17 = select i1 %16, i32 1, i32 -1
  call void @llvm.lifetime.end.p0(i64 16, ptr nonnull %4) #21
  call void @llvm.lifetime.end.p0(i64 16, ptr nonnull %3) #21
  br label %42

18:                                               ; preds = %2
  br i1 %10, label %27, label %19

19:                                               ; preds = %18
  %20 = tail call i32 @zendi_smart_strcmp(ptr noundef nonnull %6, ptr noundef nonnull %9) #21
  br label %php_array_key_compare_unstable_i.exit

21:                                               ; preds = %11
  store i64 %13, ptr %3, align 8, !tbaa !8
  %22 = getelementptr inbounds nuw i8, ptr %3, i64 8
  store i32 4, ptr %22, align 8, !tbaa !8
  store ptr %9, ptr %4, align 8, !tbaa !8
  %23 = getelementptr inbounds nuw i8, ptr %9, i64 4
  %24 = load i32, ptr %23, align 4, !tbaa !8
  %25 = and i32 %24, 64
  %.not34.i = icmp eq i32 %25, 0
  %26 = select i1 %.not34.i, i32 262, i32 6
  br label %35

27:                                               ; preds = %18
  store ptr %6, ptr %3, align 8, !tbaa !8
  %28 = getelementptr inbounds nuw i8, ptr %6, i64 4
  %29 = load i32, ptr %28, align 4, !tbaa !8
  %30 = and i32 %29, 64
  %.not32.i = icmp eq i32 %30, 0
  %31 = select i1 %.not32.i, i32 262, i32 6
  %32 = getelementptr inbounds nuw i8, ptr %3, i64 8
  store i32 %31, ptr %32, align 8, !tbaa !8
  %33 = getelementptr inbounds nuw i8, ptr %1, i64 16
  %34 = load i64, ptr %33, align 8, !tbaa !116
  store i64 %34, ptr %4, align 8, !tbaa !8
  br label %35

35:                                               ; preds = %27, %21
  %.sink = phi i32 [ 4, %27 ], [ %26, %21 ]
  %36 = getelementptr inbounds nuw i8, ptr %4, i64 8
  store i32 %.sink, ptr %36, align 8, !tbaa !8
  %37 = call i32 @zend_compare(ptr noundef nonnull %3, ptr noundef nonnull %4) #21
  br label %php_array_key_compare_unstable_i.exit

php_array_key_compare_unstable_i.exit:            ; preds = %19, %35
  %.0.i = phi i32 [ %20, %19 ], [ %37, %35 ]
  call void @llvm.lifetime.end.p0(i64 16, ptr nonnull %4) #21
  call void @llvm.lifetime.end.p0(i64 16, ptr nonnull %3) #21
  %.not = icmp eq i32 %.0.i, 0
  br i1 %.not, label %38, label %42, !prof !159

38:                                               ; preds = %php_array_key_compare_unstable_i.exit
  %39 = getelementptr i8, ptr %0, i64 12
  %.val = load i32, ptr %39, align 4, !tbaa !8
  %40 = getelementptr i8, ptr %1, i64 12
  %.val7 = load i32, ptr %40, align 4, !tbaa !8
  %41 = call fastcc i32 @stable_sort_fallback(i32 %.val, i32 %.val7)
  br label %42

42:                                               ; preds = %php_array_key_compare_unstable_i.exit.thread, %php_array_key_compare_unstable_i.exit, %38
  %.0 = phi i32 [ %41, %38 ], [ %.0.i, %php_array_key_compare_unstable_i.exit ], [ %17, %php_array_key_compare_unstable_i.exit.thread ]
  ret i32 %.0
}